target datalayout = "e-m:e-p270:32:32-p271:32:32-p272:64:64-i64:64-i128:128-f80:128-n8:16:32:64-S128"
target triple = "x86_64-pc-linux-gnu"

%struct.FunctionCallInfoBaseData = type { ptr, ptr, ptr, i32, i8, i16, [0 x %struct.NullableDatum] }
%struct.NullableDatum = type { i64, i8 }
%struct.ExpandedArrayHeader = type { %struct.ExpandedObjectHeader, i32, i32, ptr, ptr, i32, i16, i8, i8, ptr, ptr, i32, i32, i64, ptr, ptr, ptr }
%struct.ExpandedObjectHeader = type { i32, ptr, ptr, [10 x i8], [10 x i8] }
%struct.FmgrInfo = type { ptr, i32, i16, i8, i8, i8, ptr, ptr, ptr }
%struct.ArrayMetaState = type { i32, i16, i8, i8, i8, i32, i32, %struct.FmgrInfo }

@.str = private unnamed_addr constant [21 x i8] c"integer out of range\00", align 1
@.str.1 = private unnamed_addr constant [18 x i8] c"array_userfuncs.c\00", align 1
@.str.2 = private unnamed_addr constant [48 x i8] c"argument must be empty or one-dimensional array\00", align 1
@__func__.array_prepend = private unnamed_addr constant [14 x i8] c"array_prepend\00", align 1

; Function Attrs: inlinehint nounwind uwtable
define internal i64 @PointerGetDatum(ptr noundef %0) #2 {
  %2 = alloca ptr, align 8
  store ptr %0, ptr %2, align 8
  %3 = load ptr, ptr %2, align 8
  %4 = ptrtoint ptr %3 to i64
  ret i64 %4
}

; Function Attrs: inlinehint nounwind uwtable
define internal i64 @EOHPGetRWDatum(ptr noundef %0) #2 {
  %2 = alloca ptr, align 8
  store ptr %0, ptr %2, align 8
  %3 = load ptr, ptr %2, align 8
  %4 = getelementptr inbounds nuw %struct.ExpandedObjectHeader, ptr %3, i32 0, i32 3
  %5 = getelementptr inbounds [10 x i8], ptr %4, i64 0, i64 0
  %6 = call i64 @PointerGetDatum(ptr noundef %5)
  ret i64 %6
}

; Function Attrs: inlinehint nounwind uwtable
define internal zeroext i1 @pg_sub_s32_overflow(i32 noundef %0, i32 noundef %1, ptr noundef %2) #2 {
  %4 = alloca i32, align 4
  %5 = alloca i32, align 4
  %6 = alloca ptr, align 8
  store i32 %0, ptr %4, align 4
  store i32 %1, ptr %5, align 4
  store ptr %2, ptr %6, align 8
  %7 = load i32, ptr %4, align 4
  %8 = load i32, ptr %5, align 4
  %9 = load ptr, ptr %6, align 8
  %10 = call { i32, i1 } @llvm.ssub.with.overflow.i32(i32 %7, i32 %8)
  %11 = extractvalue { i32, i1 } %10, 1
  %12 = extractvalue { i32, i1 } %10, 0
  store i32 %12, ptr %9, align 4
  ret i1 %11
}

; Function Attrs: nounwind uwtable
define dso_local i64 @array_prepend(ptr noundef %0) #0 {
  %2 = alloca ptr, align 8
  %3 = alloca ptr, align 8
  %4 = alloca i64, align 8
  %5 = alloca i8, align 1
  %6 = alloca i64, align 8
  %7 = alloca ptr, align 8
  %8 = alloca i32, align 4
  %9 = alloca i32, align 4
  %10 = alloca ptr, align 8
  store ptr %0, ptr %2, align 8
  call void @llvm.lifetime.start.p0(i64 8, ptr %3) #7
  call void @llvm.lifetime.start.p0(i64 8, ptr %4) #7
  call void @llvm.lifetime.start.p0(i64 1, ptr %5) #7
  call void @llvm.lifetime.start.p0(i64 8, ptr %6) #7
  call void @llvm.lifetime.start.p0(i64 8, ptr %7) #7
  call void @llvm.lifetime.start.p0(i64 4, ptr %8) #7
  call void @llvm.lifetime.start.p0(i64 4, ptr %9) #7
  call void @llvm.lifetime.start.p0(i64 8, ptr %10) #7
  %11 = load ptr, ptr %2, align 8
  %12 = getelementptr inbounds nuw %struct.FunctionCallInfoBaseData, ptr %11, i32 0, i32 6
  %13 = getelementptr inbounds [0 x %struct.NullableDatum], ptr %12, i64 0, i64 0
  %14 = getelementptr inbounds nuw %struct.NullableDatum, ptr %13, i32 0, i32 1
  %15 = load i8, ptr %14, align 8, !range !4, !noundef !5
  %16 = trunc i8 %15 to i1
  %17 = zext i1 %16 to i8
  store i8 %17, ptr %5, align 1
  %18 = load i8, ptr %5, align 1, !range !4, !noundef !5
  %19 = trunc i8 %18 to i1
  br i1 %19, label %20, label %21

20:                                               ; preds = %1
  store i64 0, ptr %4, align 8
  br label %27

21:                                               ; preds = %1
  %22 = load ptr, ptr %2, align 8
  %23 = getelementptr inbounds nuw %struct.FunctionCallInfoBaseData, ptr %22, i32 0, i32 6
  %24 = getelementptr inbounds [0 x %struct.NullableDatum], ptr %23, i64 0, i64 0
  %25 = getelementptr inbounds nuw %struct.NullableDatum, ptr %24, i32 0, i32 0
  %26 = load i64, ptr %25, align 8
  store i64 %26, ptr %4, align 8
  br label %27

27:                                               ; preds = %21, %20
  %28 = load ptr, ptr %2, align 8
  %29 = call ptr @fetch_array_arg_replace_nulls(ptr noundef %28, i32 noundef 1)
  store ptr %29, ptr %3, align 8
  %30 = load ptr, ptr %3, align 8
  %31 = getelementptr inbounds nuw %struct.ExpandedArrayHeader, ptr %30, i32 0, i32 2
  %32 = load i32, ptr %31, align 4
  %33 = icmp eq i32 %32, 1
  br i1 %33, label %34, label %56

34:                                               ; preds = %27
  %35 = load ptr, ptr %3, align 8
  %36 = getelementptr inbounds nuw %struct.ExpandedArrayHeader, ptr %35, i32 0, i32 4
  %37 = load ptr, ptr %36, align 8
  store ptr %37, ptr %7, align 8
  %38 = load ptr, ptr %7, align 8
  %39 = getelementptr inbounds i32, ptr %38, i64 0
  %40 = load i32, ptr %39, align 4
  store i32 %40, ptr %9, align 4
  %41 = load i32, ptr %9, align 4
  %42 = call zeroext i1 @pg_sub_s32_overflow(i32 noundef %41, i32 noundef 1, ptr noundef %8)
  br i1 %42, label %43, label %55

43:                                               ; preds = %34
  br label %44

44:                                               ; preds = %43
  br i1 true, label %45, label %47

45:                                               ; preds = %44
  %46 = call zeroext i1 @errstart_cold(i32 noundef 21, ptr noundef null) #8
  br i1 %46, label %49, label %52

47:                                               ; preds = %44
  %48 = call zeroext i1 @errstart(i32 noundef 21, ptr noundef null)
  br i1 %48, label %49, label %52

49:                                               ; preds = %47, %45
  %50 = call i32 @errcode(i32 noundef 50331778)
  %51 = call i32 (ptr, ...) @errmsg(ptr noundef @.str)
  call void @errfinish(ptr noundef @.str.1, i32 noundef 234, ptr noundef @__func__.array_prepend)
  br label %52

52:                                               ; preds = %49, %47, %45
  unreachable

53:                                               ; No predecessors!
  br label %54

54:                                               ; preds = %53
  br label %55

55:                                               ; preds = %54, %34
  br label %75

56:                                               ; preds = %27
  %57 = load ptr, ptr %3, align 8
  %58 = getelementptr inbounds nuw %struct.ExpandedArrayHeader, ptr %57, i32 0, i32 2
  %59 = load i32, ptr %58, align 4
  %60 = icmp eq i32 %59, 0
  br i1 %60, label %61, label %62

61:                                               ; preds = %56
  store i32 1, ptr %8, align 4
  store i32 1, ptr %9, align 4
  br label %74

62:                                               ; preds = %56
  br label %63

63:                                               ; preds = %62
  br i1 true, label %64, label %66

64:                                               ; preds = %63
  %65 = call zeroext i1 @errstart_cold(i32 noundef 21, ptr noundef null) #8
  br i1 %65, label %68, label %71

66:                                               ; preds = %63
  %67 = call zeroext i1 @errstart(i32 noundef 21, ptr noundef null)
  br i1 %67, label %68, label %71

68:                                               ; preds = %66, %64
  %69 = call i32 @errcode(i32 noundef 130)
  %70 = call i32 (ptr, ...) @errmsg(ptr noundef @.str.2)
  call void @errfinish(ptr noundef @.str.1, i32 noundef 244, ptr noundef @__func__.array_prepend)
  br label %71

71:                                               ; preds = %68, %66, %64
  unreachable

72:                                               ; No predecessors!
  br label %73

73:                                               ; preds = %72
  br label %74

74:                                               ; preds = %73, %61
  br label %75

75:                                               ; preds = %74, %55
  %76 = load ptr, ptr %2, align 8
  %77 = getelementptr inbounds nuw %struct.FunctionCallInfoBaseData, ptr %76, i32 0, i32 0
  %78 = load ptr, ptr %77, align 8
  %79 = getelementptr inbounds nuw %struct.FmgrInfo, ptr %78, i32 0, i32 6
  %80 = load ptr, ptr %79, align 8
  store ptr %80, ptr %10, align 8
  %81 = load ptr, ptr %3, align 8
  %82 = getelementptr inbounds nuw %struct.ExpandedArrayHeader, ptr %81, i32 0, i32 0
  %83 = call i64 @EOHPGetRWDatum(ptr noundef %82)
  %84 = load i64, ptr %4, align 8
  %85 = load i8, ptr %5, align 1, !range !4, !noundef !5
  %86 = trunc i8 %85 to i1
  %87 = load ptr, ptr %10, align 8
  %88 = getelementptr inbounds nuw %struct.ArrayMetaState, ptr %87, i32 0, i32 1
  %89 = load i16, ptr %88, align 4
  %90 = sext i16 %89 to i32
  %91 = load ptr, ptr %10, align 8
  %92 = getelementptr inbounds nuw %struct.ArrayMetaState, ptr %91, i32 0, i32 2
  %93 = load i8, ptr %92, align 2, !range !4, !noundef !5
  %94 = trunc i8 %93 to i1
  %95 = load ptr, ptr %10, align 8
  %96 = getelementptr inbounds nuw %struct.ArrayMetaState, ptr %95, i32 0, i32 3
  %97 = load i8, ptr %96, align 1
  %98 = call i64 @array_set_element(i64 noundef %83, i32 noundef 1, ptr noundef %8, i64 noundef %84, i1 noundef zeroext %86, i32 noundef -1, i32 noundef %90, i1 noundef zeroext %94, i8 noundef signext %97)
  store i64 %98, ptr %6, align 8
  %99 = load ptr, ptr %3, align 8
  %100 = getelementptr inbounds nuw %struct.ExpandedArrayHeader, ptr %99, i32 0, i32 2
  %101 = load i32, ptr %100, align 4
  %102 = icmp eq i32 %101, 1
  br i1 %102, label %103, label %109

103:                                              ; preds = %75
  %104 = load i32, ptr %9, align 4
  %105 = load ptr, ptr %3, align 8
  %106 = getelementptr inbounds nuw %struct.ExpandedArrayHeader, ptr %105, i32 0, i32 4
  %107 = load ptr, ptr %106, align 8
  %108 = getelementptr inbounds i32, ptr %107, i64 0
  store i32 %104, ptr %108, align 4
  br label %109

109:                                              ; preds = %103, %75
  %110 = load i64, ptr %6, align 8
  call void @llvm.lifetime.end.p0(i64 8, ptr %10) #7
  call void @llvm.lifetime.end.p0(i64 4, ptr %9) #7
  call void @llvm.lifetime.end.p0(i64 4, ptr %8) #7
  call void @llvm.lifetime.end.p0(i64 8, ptr %7) #7
  call void @llvm.lifetime.end.p0(i64 8, ptr %6) #7
  call void @llvm.lifetime.end.p0(i64 1, ptr %5) #7
  call void @llvm.lifetime.end.p0(i64 8, ptr %4) #7
  call void @llvm.lifetime.end.p0(i64 8, ptr %3) #7
  ret i64 %110
}