; Function Attrs: nounwind uwtable
define dso_local i64 @array_prepend(ptr noundef %0) local_unnamed_addr #0 {
  %2 = alloca i32, align 4
  call void @llvm.lifetime.start.p0(i64 4, ptr nonnull %2) #10
  %3 = getelementptr inbounds nuw i8, ptr %0, i64 40
  %4 = load i8, ptr %3, align 8, !range !4, !noundef !5
  %5 = trunc nuw i8 %4 to i1
  br i1 %5, label %9, label %6

6:                                                ; preds = %1
  %7 = getelementptr inbounds nuw i8, ptr %0, i64 32
  %8 = load i64, ptr %7, align 8
  br label %9

9:                                                ; preds = %1, %6
  %.0 = phi i64 [ %8, %6 ], [ 0, %1 ]
  %10 = tail call fastcc ptr @fetch_array_arg_replace_nulls(ptr noundef nonnull %0, i32 noundef 1)
  %11 = getelementptr inbounds nuw i8, ptr %10, i64 52
  %12 = load i32, ptr %11, align 4
  switch i32 %12, label %25 [
    i32 1, label %13
    i32 0, label %24
  ]

13:                                               ; preds = %9
  %14 = getelementptr inbounds nuw i8, ptr %10, i64 64
  %15 = load ptr, ptr %14, align 8
  %16 = load i32, ptr %15, align 4
  %17 = tail call { i32, i1 } @llvm.sadd.with.overflow.i32(i32 %16, i32 -1)
  %18 = extractvalue { i32, i1 } %17, 1
  %19 = extractvalue { i32, i1 } %17, 0
  store i32 %19, ptr %2, align 4
  br i1 %18, label %20, label %29

20:                                               ; preds = %13
  %21 = tail call zeroext i1 @errstart_cold(i32 noundef 21, ptr noundef null) #11
  tail call void @llvm.assume(i1 %21)
  %22 = tail call i32 @errcode(i32 noundef 50331778) #10
  %23 = tail call i32 (ptr, ...) @errmsg(ptr noundef nonnull @.str) #10
  tail call void @errfinish(ptr noundef nonnull @.str.1, i32 noundef 234, ptr noundef nonnull @__func__.array_prepend) #10
  unreachable

24:                                               ; preds = %9
  store i32 1, ptr %2, align 4
  br label %29

25:                                               ; preds = %9
  %26 = tail call zeroext i1 @errstart_cold(i32 noundef 21, ptr noundef null) #11
  tail call void @llvm.assume(i1 %26)
  %27 = tail call i32 @errcode(i32 noundef 130) #10
  %28 = tail call i32 (ptr, ...) @errmsg(ptr noundef nonnull @.str.2) #10
  tail call void @errfinish(ptr noundef nonnull @.str.1, i32 noundef 244, ptr noundef nonnull @__func__.array_prepend) #10
  unreachable

29:                                               ; preds = %13, %24
  %.019 = phi i32 [ %16, %13 ], [ 1, %24 ]
  %30 = load ptr, ptr %0, align 8
  %31 = getelementptr inbounds nuw i8, ptr %30, i64 24
  %32 = load ptr, ptr %31, align 8
  %33 = getelementptr inbounds nuw i8, ptr %10, i64 24
  %34 = ptrtoint ptr %33 to i64
  %35 = getelementptr inbounds nuw i8, ptr %32, i64 4
  %36 = load i16, ptr %35, align 4
  %37 = sext i16 %36 to i32
  %38 = getelementptr inbounds nuw i8, ptr %32, i64 6
  %39 = load i8, ptr %38, align 2, !range !4, !noundef !5
  %40 = trunc nuw i8 %39 to i1
  %41 = getelementptr inbounds nuw i8, ptr %32, i64 7
  %42 = load i8, ptr %41, align 1
  %43 = call i64 @array_set_element(i64 noundef %34, i32 noundef 1, ptr noundef nonnull %2, i64 noundef %.0, i1 noundef zeroext %5, i32 noundef -1, i32 noundef %37, i1 noundef zeroext %40, i8 noundef signext %42) #10
  %44 = load i32, ptr %11, align 4
  %45 = icmp eq i32 %44, 1
  br i1 %45, label %46, label %49

46:                                               ; preds = %29
  %47 = getelementptr inbounds nuw i8, ptr %10, i64 64
  %48 = load ptr, ptr %47, align 8
  store i32 %.019, ptr %48, align 4
  br label %49

49:                                               ; preds = %46, %29
  call void @llvm.lifetime.end.p0(i64 4, ptr nonnull %2) #10
  ret i64 %43
}